
/tmp/tmp.KIxxOMeTnr/comp2_c.s.obj:     file format elf32-littleriscv


Disassembly of section .text:

00010054 <_start>:
   10054:	d3010113          	addi	x2,x2,-720
   10058:	2c112623          	sw	x1,716(x2)
   1005c:	2c812423          	sw	x8,712(x2)
   10060:	2c912223          	sw	x9,708(x2)
   10064:	2d212023          	sw	x18,704(x2)
   10068:	2b312e23          	sw	x19,700(x2)
   1006c:	2b412c23          	sw	x20,696(x2)
   10070:	2b512a23          	sw	x21,692(x2)
   10074:	2ba12823          	sw	x26,688(x2)
   10078:	2d010413          	addi	x8,x2,720
   1007c:	deffe7b7          	lui	x15,0xdeffe
   10080:	eff78d13          	addi	x26,x15,-257 # deffdeff <__global_pointer$+0xdefebe47>
   10084:	03c00793          	li	x15,60
   10088:	d8f42823          	sw	x15,-624(x8)
   1008c:	00100793          	li	x15,1
   10090:	fcf42e23          	sw	x15,-36(x8)
   10094:	0f80006f          	j	1018c <_start+0x138> hhhhjjhhjhjhj  a0
   10098:	fdc42783          	lw	x15,-36(x8) khkuhkjhkjh a4
   1009c:	fff78793          	addi	x15,x15,-1
   100a0:	00c00593          	li	x11,12
   100a4:	00078513          	mv	x10,x15
   100a8:	00000097          	auipc	x1,0x0
   100ac:	688080e7          	jalr	1672(x1) # 10730 <__udivsi3>
   100b0:	00050793          	mv	x15,x10
   100b4:	00078493          	mv	x9,x15
   100b8:	fdc42783          	lw	x15,-36(x8)
   100bc:	fff78793          	addi	x15,x15,-1
   100c0:	00c00593          	li	x11,12
   100c4:	00078513          	mv	x10,x15
   100c8:	00000097          	auipc	x1,0x0
   100cc:	6b4080e7          	jalr	1716(x1) # 1077c <__umodsi3>
   dc    100d0:	00050793          	mv	x15,x10
   e0    100d4:	00078713          	mv	x14,x15
   e4    100d8:	00048793          	mv	x15,x9
   e8    100dc:	00179793          	slli	x15,x15,0x1
   ec    100e0:	009787b3          	add	x15,x15,x9
   f0    100e4:	00279793          	slli	x15,x15,0x2
   f4    100e8:	00e787b3          	add	x15,x15,x14
   f8    100ec:	00279793          	slli	x15,x15,0x2
   fc    100f0:	fe040713          	addi	x14,x8,-32  # (ffff ffe0) x14 <- (0) x8 - 32
   100   100f4:	00f707b3          	add	x15,x14,x15 # (ffff ffe0) x15 <- (ffff ffe0) x14 - (0) x15
   104   100f8:	db07a703          	lw	x14,-592(x15)  # x14 <- 3c (addr = ffff fd90 ?)
   108   100fc:	00070793          	mv	x15,x14        # x15 <- (3c) x14
   10c   10100:	00379793          	slli	x15,x15,0x3 # x15 <- 1e0
   110   10104:	40e787b3          	sub	x15,x15,x14 # (1a4) x15 <- (1e0) x15 - (3c) x14
   114   10108:	01d78a93          	addi	x21,x15,29  # (1c1) x21 <- (1a4) x15 + (1d) 29
   118   1010c:	fdc42783          	lw	x15,-36(x8)
   11c   10110:	00c00593          	li	x11,12
   120   10114:	00078513          	mv	x10,x15
   124   10118:	00000097          	auipc	x1,0x0
   128   1011c:	618080e7          	jalr	1560(x1) # 10730 <__udivsi3>
   10120:	00050793          	mv	x15,x10
   10124:	00078493          	mv	x9,x15
   10128:	fdc42783          	lw	x15,-36(x8)
   1012c:	00c00593          	li	x11,12
   10130:	00078513          	mv	x10,x15
   10134:	00000097          	auipc	x1,0x0
   10138:	648080e7          	jalr	1608(x1) # 1077c <__umodsi3>
   1013c:	00050793          	mv	x15,x10
   10140:	00078a13          	mv	x20,x15
   10144:	02900593          	li	x11,41
   10148:	000a8513          	mv	x10,x21
   1014c:	00000097          	auipc	x1,0x0
   10150:	548080e7          	jalr	1352(x1) # 10694 <__modsi3>
   10154:	00050793          	mv	x15,x10
   10158:	00078713          	mv	x14,x15
   1015c:	00048793          	mv	x15,x9
   10160:	00179793          	slli	x15,x15,0x1
   10164:	009787b3          	add	x15,x15,x9
   10168:	00279793          	slli	x15,x15,0x2
   1016c:	014787b3          	add	x15,x15,x20
   10170:	00279793          	slli	x15,x15,0x2
   10174:	fe040693          	addi	x13,x8,-32
   10178:	00f687b3          	add	x15,x13,x15
   1017c:	dae7a823          	sw	x14,-592(x15)
   10180:	fdc42783          	lw	x15,-36(x8)
   10184:	00178793          	addi	x15,x15,1
   10188:	fcf42e23          	sw	x15,-36(x8)
   1018c:	fdc42703          	lw	x14,-36(x8) uyyuyyuuyuyyuuy  198
   10190:	08f00793          	li	x15,143
   10194:	f0e7f2e3          	bleu	x14,x15,10098 <_start+0x44> hjhjhjhjgjhgj 1a0
   10198:	fc042e23          	sw	x0,-36(x8)
   1019c:	0640006f          	j	10200 <_start+0x1ac>
   101a0:	d9040693          	addi	x13,x8,-624
   101a4:	fdc42703          	lw	x14,-36(x8)
   101a8:	00070793          	mv	x15,x14
   101ac:	00179793          	slli	x15,x15,0x1
   101b0:	00e787b3          	add	x15,x15,x14
   101b4:	00479793          	slli	x15,x15,0x4
   101b8:	00f687b3          	add	x15,x13,x15
   101bc:	00c00593          	li	x11,12
   101c0:	00078513          	mv	x10,x15
   101c4:	00000097          	auipc	x1,0x0
   101c8:	298080e7          	jalr	664(x1) # 1045c <iter>
   101cc:	00050793          	mv	x15,x10
   101d0:	00058813          	mv	x16,x11
   101d4:	00078693          	mv	x13,x15
   101d8:	00080713          	mv	x14,x16
   101dc:	fdc42783          	lw	x15,-36(x8)
   101e0:	00379793          	slli	x15,x15,0x3
   101e4:	fe040613          	addi	x12,x8,-32
   101e8:	00f607b3          	add	x15,x12,x15
   101ec:	d4d7a823          	sw	x13,-688(x15)
   101f0:	d4e7aa23          	sw	x14,-684(x15)
   101f4:	fdc42783          	lw	x15,-36(x8)
   101f8:	00178793          	addi	x15,x15,1
   101fc:	fcf42e23          	sw	x15,-36(x8)
   10200:	fdc42703          	lw	x14,-36(x8)
   10204:	00b00793          	li	x15,11
   10208:	f8e7fce3          	bleu	x14,x15,101a0 <_start+0x14c>
   1020c:	00000793          	li	x15,0
   10210:	00000813          	li	x16,0
   10214:	fcf42823          	sw	x15,-48(x8)
   10218:	fd042a23          	sw	x16,-44(x8)
   1021c:	fc042e23          	sw	x0,-36(x8)
   10220:	0880006f          	j	102a8 <_start+0x254>
   10224:	fdc42783          	lw	x15,-36(x8)
   10228:	00178793          	addi	x15,x15,1
   1022c:	00078913          	mv	x18,x15
   10230:	00000993          	li	x19,0
   10234:	fdc42783          	lw	x15,-36(x8)
   10238:	00379793          	slli	x15,x15,0x3
   1023c:	fe040713          	addi	x14,x8,-32
   10240:	00f707b3          	add	x15,x14,x15
   10244:	d547a803          	lw	x16,-684(x15)
   10248:	d507a783          	lw	x15,-688(x15)
   1024c:	00078613          	mv	x12,x15
   10250:	00080693          	mv	x13,x16
   10254:	00090513          	mv	x10,x18
   10258:	00098593          	mv	x11,x19
   1025c:	00000097          	auipc	x1,0x0
   10260:	56c080e7          	jalr	1388(x1) # 107c8 <__muldi3>
   10264:	00050793          	mv	x15,x10
   10268:	00058813          	mv	x16,x11
   1026c:	00078593          	mv	x11,x15
   10270:	00080613          	mv	x12,x16
   10274:	fd042683          	lw	x13,-48(x8)
   10278:	fd442703          	lw	x14,-44(x8)
   1027c:	00b687b3          	add	x15,x13,x11
   10280:	00078513          	mv	x10,x15
   10284:	00d53533          	sltu	x10,x10,x13
   10288:	00c70833          	add	x16,x14,x12
   1028c:	01050733          	add	x14,x10,x16
   10290:	00070813          	mv	x16,x14
   10294:	fcf42823          	sw	x15,-48(x8)
   10298:	fd042a23          	sw	x16,-44(x8)
   1029c:	fdc42783          	lw	x15,-36(x8)
   102a0:	00178793          	addi	x15,x15,1
   102a4:	fcf42e23          	sw	x15,-36(x8)
   102a8:	fdc42703          	lw	x14,-36(x8)
   102ac:	00b00793          	li	x15,11
   102b0:	f6e7fae3          	bleu	x14,x15,10224 <_start+0x1d0>
   102b4:	fd042703          	lw	x14,-48(x8)
   102b8:	048f67b7          	lui	x15,0x48f6
   102bc:	fa078793          	addi	x15,x15,-96 # 48f5fa0 <__global_pointer$+0x48e3ee8>
   102c0:	00f71e63          	bne	x14,x15,102dc <_start+0x288>
   102c4:	fd442703          	lw	x14,-44(x8)
   102c8:	01200793          	li	x15,18
   102cc:	00f71863          	bne	x14,x15,102dc <_start+0x288>
   102d0:	600d67b7          	lui	x15,0x600d6
   102d4:	00d78793          	addi	x15,x15,13 # 600d600d <__global_pointer$+0x600c3f55>
   102d8:	00c0006f          	j	102e4 <_start+0x290>
   102dc:	0badc7b7          	lui	x15,0xbadc
   102e0:	0de78793          	addi	x15,x15,222 # badc0de <__global_pointer$+0xbaca026>
   102e4:	00078d13          	mv	x26,x15
   102e8:	0000006f          	j	102e8 <_start+0x294>

000102ec <gcd>:
   102ec:	fd010113          	addi	x2,x2,-48
   102f0:	02112623          	sw	x1,44(x2)
   102f4:	02812423          	sw	x8,40(x2)
   102f8:	03010413          	addi	x8,x2,48
   102fc:	fca42e23          	sw	x10,-36(x8)
   10300:	fcb42c23          	sw	x11,-40(x8)
   10304:	fdc42783          	lw	x15,-36(x8)
   10308:	00079a63          	bnez	x15,1031c <gcd+0x30>
   1030c:	fd842783          	lw	x15,-40(x8)
   10310:	00079663          	bnez	x15,1031c <gcd+0x30>
   10314:	00100793          	li	x15,1
   10318:	07c0006f          	j	10394 <gcd+0xa8>
   1031c:	fdc42703          	lw	x14,-36(x8)
   10320:	fd842783          	lw	x15,-40(x8)
   10324:	04f75663          	ble	x15,x14,10370 <gcd+0x84>
   10328:	fdc42783          	lw	x15,-36(x8)
   1032c:	fef42623          	sw	x15,-20(x8)
   10330:	fd842783          	lw	x15,-40(x8)
   10334:	fcf42e23          	sw	x15,-36(x8)
   10338:	fec42783          	lw	x15,-20(x8)
   1033c:	fcf42c23          	sw	x15,-40(x8)
   10340:	0300006f          	j	10370 <gcd+0x84>
   10344:	fdc42783          	lw	x15,-36(x8)
   10348:	fd842583          	lw	x11,-40(x8)
   1034c:	00078513          	mv	x10,x15
   10350:	00000097          	auipc	x1,0x0
   10354:	344080e7          	jalr	836(x1) # 10694 <__modsi3>
   10358:	00050793          	mv	x15,x10
   1035c:	fef42623          	sw	x15,-20(x8)
   10360:	fd842783          	lw	x15,-40(x8)
   10364:	fcf42e23          	sw	x15,-36(x8)
   10368:	fec42783          	lw	x15,-20(x8)
   1036c:	fcf42c23          	sw	x15,-40(x8)
   10370:	fdc42783          	lw	x15,-36(x8)
   10374:	00078663          	beqz	x15,10380 <gcd+0x94>
   10378:	fd842783          	lw	x15,-40(x8)
   1037c:	fc0794e3          	bnez	x15,10344 <gcd+0x58>
   10380:	fdc42783          	lw	x15,-36(x8)
   10384:	00078663          	beqz	x15,10390 <gcd+0xa4>
   10388:	fdc42783          	lw	x15,-36(x8)
   1038c:	0080006f          	j	10394 <gcd+0xa8>
   10390:	fd842783          	lw	x15,-40(x8)
   10394:	00078513          	mv	x10,x15
   10398:	02c12083          	lw	x1,44(x2)
   1039c:	02812403          	lw	x8,40(x2)
   103a0:	03010113          	addi	x2,x2,48
   103a4:	00008067          	ret

000103a8 <lcm>:
   103a8:	fd010113          	addi	x2,x2,-48
   103ac:	02112623          	sw	x1,44(x2)
   103b0:	02812423          	sw	x8,40(x2)
   103b4:	03212223          	sw	x18,36(x2)
   103b8:	03312023          	sw	x19,32(x2)
   103bc:	01412e23          	sw	x20,28(x2)
   103c0:	01512c23          	sw	x21,24(x2)
   103c4:	03010413          	addi	x8,x2,48
   103c8:	fca42e23          	sw	x10,-36(x8)
   103cc:	fcb42c23          	sw	x11,-40(x8)
   103d0:	fdc42783          	lw	x15,-36(x8)
   103d4:	00078913          	mv	x18,x15
   103d8:	41f7d793          	srai	x15,x15,0x1f
   103dc:	00078993          	mv	x19,x15
   103e0:	fd842583          	lw	x11,-40(x8)
   103e4:	fdc42503          	lw	x10,-36(x8)
   103e8:	00000097          	auipc	x1,0x0
   103ec:	f04080e7          	jalr	-252(x1) # 102ec <gcd>
   103f0:	00050793          	mv	x15,x10
   103f4:	00078593          	mv	x11,x15
   103f8:	fd842503          	lw	x10,-40(x8)
   103fc:	00000097          	auipc	x1,0x0
   10400:	1e4080e7          	jalr	484(x1) # 105e0 <__divsi3>
   10404:	00050793          	mv	x15,x10
   10408:	00078a13          	mv	x20,x15
   1040c:	41f7d793          	srai	x15,x15,0x1f
   10410:	00078a93          	mv	x21,x15
   10414:	000a0613          	mv	x12,x20
   10418:	000a8693          	mv	x13,x21
   1041c:	00090513          	mv	x10,x18
   10420:	00098593          	mv	x11,x19
   10424:	00000097          	auipc	x1,0x0
   10428:	3a4080e7          	jalr	932(x1) # 107c8 <__muldi3>
   1042c:	00050793          	mv	x15,x10
   10430:	00058813          	mv	x16,x11
   10434:	00078513          	mv	x10,x15
   10438:	00080593          	mv	x11,x16
   1043c:	02c12083          	lw	x1,44(x2)
   10440:	02812403          	lw	x8,40(x2)
   10444:	02412903          	lw	x18,36(x2)
   10448:	02012983          	lw	x19,32(x2)
   1044c:	01c12a03          	lw	x20,28(x2)
   10450:	01812a83          	lw	x21,24(x2)
   10454:	03010113          	addi	x2,x2,48
   10458:	00008067          	ret

0001045c <iter>:
   1045c:	fd010113          	addi	x2,x2,-48
   10460:	02112623          	sw	x1,44(x2)
   10464:	02812423          	sw	x8,40(x2)
   10468:	03010413          	addi	x8,x2,48
   1046c:	fca42e23          	sw	x10,-36(x8)
   10470:	fcb42c23          	sw	x11,-40(x8)
   10474:	fd842783          	lw	x15,-40(x8)
   10478:	00079863          	bnez	x15,10488 <iter+0x2c>
   1047c:	fff00793          	li	x15,-1
   10480:	fff00813          	li	x16,-1
   10484:	0740006f          	j	104f8 <iter+0x9c>
   10488:	fdc42783          	lw	x15,-36(x8)
   1048c:	0007a783          	lw	x15,0(x15)
   10490:	fef42023          	sw	x15,-32(x8)
   10494:	41f7d793          	srai	x15,x15,0x1f
   10498:	fef42223          	sw	x15,-28(x8)
   1049c:	00100793          	li	x15,1
   104a0:	fef42623          	sw	x15,-20(x8)
   104a4:	0400006f          	j	104e4 <iter+0x88>
   104a8:	fe042683          	lw	x13,-32(x8)
   104ac:	fec42783          	lw	x15,-20(x8)
   104b0:	00279793          	slli	x15,x15,0x2
   104b4:	fdc42703          	lw	x14,-36(x8)
   104b8:	00f707b3          	add	x15,x14,x15
   104bc:	0007a783          	lw	x15,0(x15)
   104c0:	00078593          	mv	x11,x15
   104c4:	00068513          	mv	x10,x13
   104c8:	00000097          	auipc	x1,0x0
   104cc:	ee0080e7          	jalr	-288(x1) # 103a8 <lcm>
   104d0:	fea42023          	sw	x10,-32(x8)
   104d4:	feb42223          	sw	x11,-28(x8)
   104d8:	fec42783          	lw	x15,-20(x8)
   104dc:	00178793          	addi	x15,x15,1
   104e0:	fef42623          	sw	x15,-20(x8)
   104e4:	fec42703          	lw	x14,-20(x8)
   104e8:	fd842783          	lw	x15,-40(x8)
   104ec:	faf74ee3          	blt	x14,x15,104a8 <iter+0x4c>
   104f0:	fe042783          	lw	x15,-32(x8)
   104f4:	fe442803          	lw	x16,-28(x8)
   104f8:	00078513          	mv	x10,x15
   104fc:	00080593          	mv	x11,x16
   10500:	02c12083          	lw	x1,44(x2)
   10504:	02812403          	lw	x8,40(x2)
   10508:	03010113          	addi	x2,x2,48
   1050c:	00008067          	ret

00010510 <__udivmodsi4>:
   10510:	fd010113          	addi	x2,x2,-48
   10514:	02812623          	sw	x8,44(x2)
   10518:	03010413          	addi	x8,x2,48
   1051c:	fca42e23          	sw	x10,-36(x8)
   10520:	fcb42c23          	sw	x11,-40(x8)
   10524:	fcc42a23          	sw	x12,-44(x8)
   10528:	00100793          	li	x15,1
   1052c:	fef42623          	sw	x15,-20(x8)
   10530:	fe042423          	sw	x0,-24(x8)
   10534:	01c0006f          	j	10550 <__udivmodsi4+0x40>
   10538:	fd842783          	lw	x15,-40(x8)
   1053c:	00179793          	slli	x15,x15,0x1
   10540:	fcf42c23          	sw	x15,-40(x8)
   10544:	fec42783          	lw	x15,-20(x8)
   10548:	00179793          	slli	x15,x15,0x1
   1054c:	fef42623          	sw	x15,-20(x8)
   10550:	fd842703          	lw	x14,-40(x8)
   10554:	fdc42783          	lw	x15,-36(x8)
   10558:	04f77e63          	bleu	x15,x14,105b4 <__udivmodsi4+0xa4>
   1055c:	fec42783          	lw	x15,-20(x8)
   10560:	04078a63          	beqz	x15,105b4 <__udivmodsi4+0xa4>
   10564:	fd842783          	lw	x15,-40(x8)
   10568:	fc07d8e3          	bgez	x15,10538 <__udivmodsi4+0x28>
   1056c:	0480006f          	j	105b4 <__udivmodsi4+0xa4>
   10570:	fdc42703          	lw	x14,-36(x8)
   10574:	fd842783          	lw	x15,-40(x8)
   10578:	02f76263          	bltu	x14,x15,1059c <__udivmodsi4+0x8c>
   1057c:	fdc42703          	lw	x14,-36(x8)
   10580:	fd842783          	lw	x15,-40(x8)
   10584:	40f707b3          	sub	x15,x14,x15
   10588:	fcf42e23          	sw	x15,-36(x8)
   1058c:	fe842703          	lw	x14,-24(x8)
   10590:	fec42783          	lw	x15,-20(x8)
   10594:	00f767b3          	or	x15,x14,x15
   10598:	fef42423          	sw	x15,-24(x8)
   1059c:	fec42783          	lw	x15,-20(x8)
   105a0:	0017d793          	srli	x15,x15,0x1
   105a4:	fef42623          	sw	x15,-20(x8)
   105a8:	fd842783          	lw	x15,-40(x8)
   105ac:	0017d793          	srli	x15,x15,0x1
   105b0:	fcf42c23          	sw	x15,-40(x8)
   105b4:	fec42783          	lw	x15,-20(x8)
   105b8:	fa079ce3          	bnez	x15,10570 <__udivmodsi4+0x60>
   105bc:	fd442783          	lw	x15,-44(x8)
   105c0:	00078663          	beqz	x15,105cc <__udivmodsi4+0xbc>
   105c4:	fdc42783          	lw	x15,-36(x8)
   105c8:	0080006f          	j	105d0 <__udivmodsi4+0xc0>
   105cc:	fe842783          	lw	x15,-24(x8)
   105d0:	00078513          	mv	x10,x15
   105d4:	02c12403          	lw	x8,44(x2)
   105d8:	03010113          	addi	x2,x2,48
   105dc:	00008067          	ret

000105e0 <__divsi3>:
   105e0:	fd010113          	addi	x2,x2,-48
   105e4:	02112623          	sw	x1,44(x2)
   105e8:	02812423          	sw	x8,40(x2)
   105ec:	03010413          	addi	x8,x2,48
   105f0:	fca42e23          	sw	x10,-36(x8)
   105f4:	fcb42c23          	sw	x11,-40(x8)
   105f8:	fe042623          	sw	x0,-20(x8)
   105fc:	fdc42783          	lw	x15,-36(x8)
   10600:	0207d063          	bgez	x15,10620 <__divsi3+0x40>
   10604:	fdc42783          	lw	x15,-36(x8)
   10608:	40f007b3          	neg	x15,x15
   1060c:	fcf42e23          	sw	x15,-36(x8)
   10610:	fec42783          	lw	x15,-20(x8)
   10614:	0017b793          	seqz	x15,x15
   10618:	0ff7f793          	andi	x15,x15,255
   1061c:	fef42623          	sw	x15,-20(x8)
   10620:	fd842783          	lw	x15,-40(x8)
   10624:	0207d063          	bgez	x15,10644 <__divsi3+0x64>
   10628:	fd842783          	lw	x15,-40(x8)
   1062c:	40f007b3          	neg	x15,x15
   10630:	fcf42c23          	sw	x15,-40(x8)
   10634:	fec42783          	lw	x15,-20(x8)
   10638:	0017b793          	seqz	x15,x15
   1063c:	0ff7f793          	andi	x15,x15,255
   10640:	fef42623          	sw	x15,-20(x8)
   10644:	fdc42783          	lw	x15,-36(x8)
   10648:	fd842703          	lw	x14,-40(x8)
   1064c:	00000613          	li	x12,0
   10650:	00070593          	mv	x11,x14
   10654:	00078513          	mv	x10,x15
   10658:	00000097          	auipc	x1,0x0
   1065c:	eb8080e7          	jalr	-328(x1) # 10510 <__udivmodsi4>
   10660:	00050793          	mv	x15,x10
   10664:	fef42423          	sw	x15,-24(x8)
   10668:	fec42783          	lw	x15,-20(x8)
   1066c:	00078863          	beqz	x15,1067c <__divsi3+0x9c>
   10670:	fe842783          	lw	x15,-24(x8)
   10674:	40f007b3          	neg	x15,x15
   10678:	fef42423          	sw	x15,-24(x8)
   1067c:	fe842783          	lw	x15,-24(x8)
   10680:	00078513          	mv	x10,x15
   10684:	02c12083          	lw	x1,44(x2)
   10688:	02812403          	lw	x8,40(x2)
   1068c:	03010113          	addi	x2,x2,48
   10690:	00008067          	ret

00010694 <__modsi3>:
   10694:	fd010113          	addi	x2,x2,-48
   10698:	02112623          	sw	x1,44(x2)
   1069c:	02812423          	sw	x8,40(x2)
   106a0:	03010413          	addi	x8,x2,48
   106a4:	fca42e23          	sw	x10,-36(x8)
   106a8:	fcb42c23          	sw	x11,-40(x8)
   106ac:	fe042623          	sw	x0,-20(x8)
   106b0:	fdc42783          	lw	x15,-36(x8)
   106b4:	0007dc63          	bgez	x15,106cc <__modsi3+0x38>
   106b8:	fdc42783          	lw	x15,-36(x8)
   106bc:	40f007b3          	neg	x15,x15
   106c0:	fcf42e23          	sw	x15,-36(x8)
   106c4:	00100793          	li	x15,1
   106c8:	fef42623          	sw	x15,-20(x8)
   106cc:	fd842783          	lw	x15,-40(x8)
   106d0:	0007d863          	bgez	x15,106e0 <__modsi3+0x4c>
   106d4:	fd842783          	lw	x15,-40(x8)
   106d8:	40f007b3          	neg	x15,x15
   106dc:	fcf42c23          	sw	x15,-40(x8)
   106e0:	fdc42783          	lw	x15,-36(x8)
   106e4:	fd842703          	lw	x14,-40(x8)
   106e8:	00100613          	li	x12,1
   106ec:	00070593          	mv	x11,x14
   106f0:	00078513          	mv	x10,x15
   106f4:	00000097          	auipc	x1,0x0
   106f8:	e1c080e7          	jalr	-484(x1) # 10510 <__udivmodsi4>
   106fc:	00050793          	mv	x15,x10
   10700:	fef42423          	sw	x15,-24(x8)
   10704:	fec42783          	lw	x15,-20(x8)
   10708:	00078863          	beqz	x15,10718 <__modsi3+0x84>
   1070c:	fe842783          	lw	x15,-24(x8)
   10710:	40f007b3          	neg	x15,x15
   10714:	fef42423          	sw	x15,-24(x8)
   10718:	fe842783          	lw	x15,-24(x8)
   1071c:	00078513          	mv	x10,x15
   10720:	02c12083          	lw	x1,44(x2)
   10724:	02812403          	lw	x8,40(x2)
   10728:	03010113          	addi	x2,x2,48
   1072c:	00008067          	ret

00010730 <__udivsi3>:
   10730:	fe010113          	addi	x2,x2,-32
   10734:	00112e23          	sw	x1,28(x2)
   10738:	00812c23          	sw	x8,24(x2)
   1073c:	02010413          	addi	x8,x2,32
   10740:	fea42623          	sw	x10,-20(x8)
   10744:	feb42423          	sw	x11,-24(x8)
   10748:	fec42783          	lw	x15,-20(x8)
   1074c:	fe842703          	lw	x14,-24(x8)
   10750:	00000613          	li	x12,0
   10754:	00070593          	mv	x11,x14
   10758:	00078513          	mv	x10,x15
   1075c:	00000097          	auipc	x1,0x0
   10760:	db4080e7          	jalr	-588(x1) # 10510 <__udivmodsi4>
   10764:	00050793          	mv	x15,x10
   10768:	00078513          	mv	x10,x15
   1076c:	01c12083          	lw	x1,28(x2)
   10770:	01812403          	lw	x8,24(x2)
   10774:	02010113          	addi	x2,x2,32
   10778:	00008067          	ret

0001077c <__umodsi3>:
   1077c:	fe010113          	addi	x2,x2,-32
   10780:	00112e23          	sw	x1,28(x2)
   10784:	00812c23          	sw	x8,24(x2)
   10788:	02010413          	addi	x8,x2,32
   1078c:	fea42623          	sw	x10,-20(x8)
   10790:	feb42423          	sw	x11,-24(x8)
   10794:	fec42783          	lw	x15,-20(x8)
   10798:	fe842703          	lw	x14,-24(x8)
   1079c:	00100613          	li	x12,1
   107a0:	00070593          	mv	x11,x14
   107a4:	00078513          	mv	x10,x15
   107a8:	00000097          	auipc	x1,0x0
   107ac:	d68080e7          	jalr	-664(x1) # 10510 <__udivmodsi4>
   107b0:	00050793          	mv	x15,x10
   107b4:	00078513          	mv	x10,x15
   107b8:	01c12083          	lw	x1,28(x2)
   107bc:	01812403          	lw	x8,24(x2)
   107c0:	02010113          	addi	x2,x2,32
   107c4:	00008067          	ret

000107c8 <__muldi3>:
   107c8:	fd010113          	addi	x2,x2,-48
   107cc:	02812623          	sw	x8,44(x2)
   107d0:	03010413          	addi	x8,x2,48
   107d4:	fca42c23          	sw	x10,-40(x8)
   107d8:	fcb42e23          	sw	x11,-36(x8)
   107dc:	fcc42823          	sw	x12,-48(x8)
   107e0:	fcd42a23          	sw	x13,-44(x8)
   107e4:	00000793          	li	x15,0
   107e8:	00000813          	li	x16,0
   107ec:	fef42423          	sw	x15,-24(x8)
   107f0:	ff042623          	sw	x16,-20(x8)
   107f4:	0980006f          	j	1088c <__muldi3+0xc4>
   107f8:	fd842783          	lw	x15,-40(x8)
   107fc:	0017f313          	andi	x6,x15,1
   10800:	fdc42783          	lw	x15,-36(x8)
   10804:	0007f393          	andi	x7,x15,0
   10808:	00030793          	mv	x15,x6
   1080c:	0077e7b3          	or	x15,x15,x7
   10810:	02078a63          	beqz	x15,10844 <__muldi3+0x7c>
   10814:	fe842683          	lw	x13,-24(x8)
   10818:	fec42703          	lw	x14,-20(x8)
   1081c:	fd042583          	lw	x11,-48(x8)
   10820:	fd442603          	lw	x12,-44(x8)
   10824:	00b687b3          	add	x15,x13,x11
   10828:	00078513          	mv	x10,x15
   1082c:	00d53533          	sltu	x10,x10,x13
   10830:	00c70833          	add	x16,x14,x12
   10834:	01050733          	add	x14,x10,x16
   10838:	00070813          	mv	x16,x14
   1083c:	fef42423          	sw	x15,-24(x8)
   10840:	ff042623          	sw	x16,-20(x8)
   10844:	fdc42783          	lw	x15,-36(x8)
   10848:	01f79793          	slli	x15,x15,0x1f
   1084c:	fd842703          	lw	x14,-40(x8)
   10850:	00175713          	srli	x14,x14,0x1
   10854:	00f767b3          	or	x15,x14,x15
   10858:	fcf42c23          	sw	x15,-40(x8)
   1085c:	fdc42783          	lw	x15,-36(x8)
   10860:	0017d793          	srli	x15,x15,0x1
   10864:	fcf42e23          	sw	x15,-36(x8)
   10868:	fd042783          	lw	x15,-48(x8)
   1086c:	01f7d793          	srli	x15,x15,0x1f
   10870:	fd442703          	lw	x14,-44(x8)
   10874:	00171713          	slli	x14,x14,0x1
   10878:	00f767b3          	or	x15,x14,x15
   1087c:	fcf42a23          	sw	x15,-44(x8)
   10880:	fd042783          	lw	x15,-48(x8)
   10884:	00179793          	slli	x15,x15,0x1
   10888:	fcf42823          	sw	x15,-48(x8)
   1088c:	fd842783          	lw	x15,-40(x8)
   10890:	fdc42703          	lw	x14,-36(x8)
   10894:	00e7e7b3          	or	x15,x15,x14
   10898:	f60790e3          	bnez	x15,107f8 <__muldi3+0x30>
   1089c:	fe842783          	lw	x15,-24(x8)
   108a0:	fec42803          	lw	x16,-20(x8)
   108a4:	00078513          	mv	x10,x15
   108a8:	00080593          	mv	x11,x16
   108ac:	02c12403          	lw	x8,44(x2)
   108b0:	03010113          	addi	x2,x2,48
   108b4:	00008067          	ret

Disassembly of section .comment:

00000000 <.comment>:
   0:	3a434347          	fmsub.d	f6,f6,f4,f7,rmm
   4:	2820                	fld	f8,80(x8)
   6:	29554e47          	fmsub.s	f28,f10,f21,f5,rmm
   a:	3720                	fld	f8,104(x14)
   c:	322e                	fld	f4,232(x2)
   e:	302e                	fld	f0,232(x2)
	...
0000000 0113 d301 2623 2c11 2423 2c81 2223 2c91
0000010 2023 2d21 2e23 2b31 2c23 2b41 2a23 2b51
0000020 2823 2ba1 0413 2d01 e7b7 deff 8d13 eff7
0000030 0793 03c0 2823 d8f4 0793 0010 2e23 fcf4
0000040 006f 0f80 2783 fdc4 8793 fff7 0593 00c0
0000050 8513 0007 0097 0000 80e7 6880 0793 0005
0000060 8493 0007 2783 fdc4 8793 fff7 0593 00c0
0000070 8513 0007 0097 0000 80e7 6b40 0793 0005
0000080 8713 0007 8793 0004 9793 0017 87b3 0097
0000090 9793 0027 87b3 00e7 9793 0027 0713 fe04
00000a0 07b3 00f7 a703 db07 0793 0007 9793 0037
00000b0 87b3 40e7 8a93 01d7 2783 fdc4 0593 00c0
00000c0 8513 0007 0097 0000 80e7 6180 0793 0005
00000d0 8493 0007 2783 fdc4 0593 00c0 8513 0007
00000e0 0097 0000 80e7 6480 0793 0005 8a13 0007
00000f0 0593 0290 8513 000a 0097 0000 80e7 5480
0000100 0793 0005 8713 0007 8793 0004 9793 0017
0000110 87b3 0097 9793 0027 87b3 0147 9793 0027
0000120 0693 fe04 87b3 00f6 a823 dae7 2783 fdc4
0000130 8793 0017 2e23 fcf4 2703 fdc4 0793 08f0
0000140 f2e3 f0e7 2e23 fc04 006f 0640 0693 d904
0000150 2703 fdc4 0793 0007 9793 0017 87b3 00e7
0000160 9793 0047 87b3 00f6 0593 00c0 8513 0007
0000170 0097 0000 80e7 2980 0793 0005 8813 0005
0000180 8693 0007 0713 0008 2783 fdc4 9793 0037
0000190 0613 fe04 07b3 00f6 a823 d4d7 aa23 d4e7
00001a0 2783 fdc4 8793 0017 2e23 fcf4 2703 fdc4
00001b0 0793 00b0 fce3 f8e7 0793 0000 0813 0000
00001c0 2823 fcf4 2a23 fd04 2e23 fc04 006f 0880
00001d0 2783 fdc4 8793 0017 8913 0007 0993 0000
00001e0 2783 fdc4 9793 0037 0713 fe04 07b3 00f7
00001f0 a803 d547 a783 d507 8613 0007 0693 0008
0000200 0513 0009 8593 0009 0097 0000 80e7 56c0
0000210 0793 0005 8813 0005 8593 0007 0613 0008
0000220 2683 fd04 2703 fd44 87b3 00b6 8513 0007
0000230 3533 00d5 0833 00c7 0733 0105 0813 0007
0000240 2823 fcf4 2a23 fd04 2783 fdc4 8793 0017
0000250 2e23 fcf4 2703 fdc4 0793 00b0 fae3 f6e7
0000260 2703 fd04 67b7 048f 8793 fa07 1e63 00f7
0000270 2703 fd44 0793 0120 1863 00f7 67b7 600d
0000280 8793 00d7 006f 00c0 c7b7 0bad 8793 0de7
0000290 8d13 0007 006f 0000 0113 fd01 2623 0211
00002a0 2423 0281 0413 0301 2e23 fca4 2c23 fcb4
00002b0 2783 fdc4 9a63 0007 2783 fd84 9663 0007
00002c0 0793 0010 006f 07c0 2703 fdc4 2783 fd84
00002d0 5663 04f7 2783 fdc4 2623 fef4 2783 fd84
00002e0 2e23 fcf4 2783 fec4 2c23 fcf4 006f 0300
00002f0 2783 fdc4 2583 fd84 8513 0007 0097 0000
0000300 80e7 3440 0793 0005 2623 fef4 2783 fd84
0000310 2e23 fcf4 2783 fec4 2c23 fcf4 2783 fdc4
0000320 8663 0007 2783 fd84 94e3 fc07 2783 fdc4
0000330 8663 0007 2783 fdc4 006f 0080 2783 fd84
0000340 8513 0007 2083 02c1 2403 0281 0113 0301
0000350 8067 0000 0113 fd01 2623 0211 2423 0281
0000360 2223 0321 2023 0331 2e23 0141 2c23 0151
0000370 0413 0301 2e23 fca4 2c23 fcb4 2783 fdc4
0000380 8913 0007 d793 41f7 8993 0007 2583 fd84
0000390 2503 fdc4 0097 0000 80e7 f040 0793 0005
00003a0 8593 0007 2503 fd84 0097 0000 80e7 1e40
00003b0 0793 0005 8a13 0007 d793 41f7 8a93 0007
00003c0 0613 000a 8693 000a 0513 0009 8593 0009
00003d0 0097 0000 80e7 3a40 0793 0005 8813 0005
00003e0 8513 0007 0593 0008 2083 02c1 2403 0281
00003f0 2903 0241 2983 0201 2a03 01c1 2a83 0181
0000400 0113 0301 8067 0000 0113 fd01 2623 0211
0000410 2423 0281 0413 0301 2e23 fca4 2c23 fcb4
0000420 2783 fd84 9863 0007 0793 fff0 0813 fff0
0000430 006f 0740 2783 fdc4 a783 0007 2023 fef4
0000440 d793 41f7 2223 fef4 0793 0010 2623 fef4
0000450 006f 0400 2683 fe04 2783 fec4 9793 0027
0000460 2703 fdc4 07b3 00f7 a783 0007 8593 0007
0000470 8513 0006 0097 0000 80e7 ee00 2023 fea4
0000480 2223 feb4 2783 fec4 8793 0017 2623 fef4
0000490 2703 fec4 2783 fd84 4ee3 faf7 2783 fe04
00004a0 2803 fe44 8513 0007 0593 0008 2083 02c1
00004b0 2403 0281 0113 0301 8067 0000 0113 fd01
00004c0 2623 0281 0413 0301 2e23 fca4 2c23 fcb4
00004d0 2a23 fcc4 0793 0010 2623 fef4 2423 fe04
00004e0 006f 01c0 2783 fd84 9793 0017 2c23 fcf4
00004f0 2783 fec4 9793 0017 2623 fef4 2703 fd84
0000500 2783 fdc4 7e63 04f7 2783 fec4 8a63 0407
0000510 2783 fd84 d8e3 fc07 006f 0480 2703 fdc4
0000520 2783 fd84 6263 02f7 2703 fdc4 2783 fd84
0000530 07b3 40f7 2e23 fcf4 2703 fe84 2783 fec4
0000540 67b3 00f7 2423 fef4 2783 fec4 d793 0017
0000550 2623 fef4 2783 fd84 d793 0017 2c23 fcf4
0000560 2783 fec4 9ce3 fa07 2783 fd44 8663 0007
0000570 2783 fdc4 006f 0080 2783 fe84 8513 0007
0000580 2403 02c1 0113 0301 8067 0000 0113 fd01
0000590 2623 0211 2423 0281 0413 0301 2e23 fca4
00005a0 2c23 fcb4 2623 fe04 2783 fdc4 d063 0207
00005b0 2783 fdc4 07b3 40f0 2e23 fcf4 2783 fec4
00005c0 b793 0017 f793 0ff7 2623 fef4 2783 fd84
00005d0 d063 0207 2783 fd84 07b3 40f0 2c23 fcf4
00005e0 2783 fec4 b793 0017 f793 0ff7 2623 fef4
00005f0 2783 fdc4 2703 fd84 0613 0000 0593 0007
0000600 8513 0007 0097 0000 80e7 eb80 0793 0005
0000610 2423 fef4 2783 fec4 8863 0007 2783 fe84
0000620 07b3 40f0 2423 fef4 2783 fe84 8513 0007
0000630 2083 02c1 2403 0281 0113 0301 8067 0000
0000640 0113 fd01 2623 0211 2423 0281 0413 0301
0000650 2e23 fca4 2c23 fcb4 2623 fe04 2783 fdc4
0000660 dc63 0007 2783 fdc4 07b3 40f0 2e23 fcf4
0000670 0793 0010 2623 fef4 2783 fd84 d863 0007
0000680 2783 fd84 07b3 40f0 2c23 fcf4 2783 fdc4
0000690 2703 fd84 0613 0010 0593 0007 8513 0007
00006a0 0097 0000 80e7 e1c0 0793 0005 2423 fef4
00006b0 2783 fec4 8863 0007 2783 fe84 07b3 40f0
00006c0 2423 fef4 2783 fe84 8513 0007 2083 02c1
00006d0 2403 0281 0113 0301 8067 0000 0113 fe01
00006e0 2e23 0011 2c23 0081 0413 0201 2623 fea4
00006f0 2423 feb4 2783 fec4 2703 fe84 0613 0000
0000700 0593 0007 8513 0007 0097 0000 80e7 db40
0000710 0793 0005 8513 0007 2083 01c1 2403 0181
0000720 0113 0201 8067 0000 0113 fe01 2e23 0011
0000730 2c23 0081 0413 0201 2623 fea4 2423 feb4
0000740 2783 fec4 2703 fe84 0613 0010 0593 0007
0000750 8513 0007 0097 0000 80e7 d680 0793 0005
0000760 8513 0007 2083 01c1 2403 0181 0113 0201
0000770 8067 0000 0113 fd01 2623 0281 0413 0301
0000780 2c23 fca4 2e23 fcb4 2823 fcc4 2a23 fcd4
0000790 0793 0000 0813 0000 2423 fef4 2623 ff04
00007a0 006f 0980 2783 fd84 f313 0017 2783 fdc4
00007b0 f393 0007 0793 0003 e7b3 0077 8a63 0207
00007c0 2683 fe84 2703 fec4 2583 fd04 2603 fd44
00007d0 87b3 00b6 8513 0007 3533 00d5 0833 00c7
00007e0 0733 0105 0813 0007 2423 fef4 2623 ff04
00007f0 2783 fdc4 9793 01f7 2703 fd84 5713 0017
0000800 67b3 00f7 2c23 fcf4 2783 fdc4 d793 0017
0000810 2e23 fcf4 2783 fd04 d793 01f7 2703 fd44
0000820 1713 0017 67b3 00f7 2a23 fcf4 2783 fd04
0000830 9793 0017 2823 fcf4 2783 fd84 2703 fdc4
0000840 e7b3 00e7 90e3 f607 2783 fe84 2803 fec4
0000850 8513 0007 0593 0008 2403 02c1 0113 0301
0000860 8067 0000                              
0000864
Target file /home/jpohov2/ece411/mp4/mp4/sim/memory.lst exists.
Overwrite? [y/N] Assembled ./testcode/comp2_c.s and wrote memory contents to /home/jpohov2/ece411/mp4/mp4/sim/memory.lst
